; Function Attrs: mustprogress uwtable
define hidden void @_ZN4cvc58internal6theory2ff18TheoryFiniteFields10finishInitEv(ptr noundef nonnull readonly align 8 captures(none) dereferenceable(768) %0) unnamed_addr #4 align 2 {
  %2 = getelementptr inbounds nuw i8, ptr %0, i64 80
  %3 = load ptr, ptr %2, align 8, !tbaa !268
  tail call void @_ZN4cvc58internal6theory2eq14EqualityEngine15addFunctionKindENS0_4kind6Kind_tEbb(ptr noundef nonnull align 8 dereferenceable(1784) %3, i32 noundef 153, i1 noundef zeroext false, i1 noundef zeroext false)
  %4 = load ptr, ptr %2, align 8, !tbaa !268
  tail call void @_ZN4cvc58internal6theory2eq14EqualityEngine15addFunctionKindENS0_4kind6Kind_tEbb(ptr noundef nonnull align 8 dereferenceable(1784) %4, i32 noundef 154, i1 noundef zeroext false, i1 noundef zeroext false)
  %5 = load ptr, ptr %2, align 8, !tbaa !268
  tail call void @_ZN4cvc58internal6theory2eq14EqualityEngine15addFunctionKindENS0_4kind6Kind_tEbb(ptr noundef nonnull align 8 dereferenceable(1784) %5, i32 noundef 155, i1 noundef zeroext false, i1 noundef zeroext false)
  ret void
}